target datalayout = "e-m:e-p270:32:32-p271:32:32-p272:64:64-i64:64-i128:128-f80:128-n8:16:32:64-S128"
target triple = "x86_64-pc-linux-gnu"

%"class.open3d::visualization::SelectionPolygon" = type <{ %"class.open3d::geometry::Geometry2D", %"class.std::vector", i8, [7 x i8], %"class.open3d::geometry::Image", i32, [4 x i8] }>
%"class.open3d::geometry::Geometry2D" = type { %"class.open3d::geometry::Geometry" }
%"class.open3d::geometry::Geometry" = type { ptr, i32, i32, %"class.std::__cxx11::basic_string" }
%"class.std::__cxx11::basic_string" = type { %"struct.std::__cxx11::basic_string<char>::_Alloc_hider", i64, %union.anon }
%"struct.std::__cxx11::basic_string<char>::_Alloc_hider" = type { ptr }
%union.anon = type { i64, [8 x i8] }
%"class.std::vector" = type { %"struct.std::_Vector_base" }
%"struct.std::_Vector_base" = type { %"struct.std::_Vector_base<Eigen::Matrix<double, 2, 1>, std::allocator<Eigen::Matrix<double, 2, 1>>>::_Vector_impl" }
%"struct.std::_Vector_base<Eigen::Matrix<double, 2, 1>, std::allocator<Eigen::Matrix<double, 2, 1>>>::_Vector_impl" = type { %"struct.std::_Vector_base<Eigen::Matrix<double, 2, 1>, std::allocator<Eigen::Matrix<double, 2, 1>>>::_Vector_impl_data" }
%"struct.std::_Vector_base<Eigen::Matrix<double, 2, 1>, std::allocator<Eigen::Matrix<double, 2, 1>>>::_Vector_impl_data" = type { ptr, ptr, ptr }
%"class.open3d::geometry::Image" = type { %"class.open3d::geometry::Geometry2D", i32, i32, i32, i32, %"class.std::vector.21" }
%"class.std::vector.21" = type { %"struct.std::_Vector_base.22" }
%"struct.std::_Vector_base.22" = type { %"struct.std::_Vector_base<unsigned char, std::allocator<unsigned char>>::_Vector_impl" }
%"struct.std::_Vector_base<unsigned char, std::allocator<unsigned char>>::_Vector_impl" = type { %"struct.std::_Vector_base<unsigned char, std::allocator<unsigned char>>::_Vector_impl_data" }
%"struct.std::_Vector_base<unsigned char, std::allocator<unsigned char>>::_Vector_impl_data" = type { ptr, ptr, ptr }

; Function Attrs: mustprogress nounwind ssp uwtable
define linkonce_odr noundef i64 @_ZNKSt6vectorIN5Eigen6MatrixIdLi2ELi1ELi0ELi2ELi1EEESaIS2_EE4sizeEv(ptr noundef nonnull align 8 dereferenceable(24) %0) #0 comdat align 2 {
  %2 = alloca ptr, align 8
  store ptr %0, ptr %2, align 8, !tbaa !174
  %3 = load ptr, ptr %2, align 8
  %4 = getelementptr inbounds nuw %"struct.std::_Vector_base", ptr %3, i32 0, i32 0
  %5 = getelementptr inbounds nuw %"struct.std::_Vector_base<Eigen::Matrix<double, 2, 1>, std::allocator<Eigen::Matrix<double, 2, 1>>>::_Vector_impl_data", ptr %4, i32 0, i32 1
  %6 = load ptr, ptr %5, align 8, !tbaa !178
  %7 = getelementptr inbounds nuw %"struct.std::_Vector_base", ptr %3, i32 0, i32 0
  %8 = getelementptr inbounds nuw %"struct.std::_Vector_base<Eigen::Matrix<double, 2, 1>, std::allocator<Eigen::Matrix<double, 2, 1>>>::_Vector_impl_data", ptr %7, i32 0, i32 0
  %9 = load ptr, ptr %8, align 8, !tbaa !176
  %10 = ptrtoint ptr %6 to i64
  %11 = ptrtoint ptr %9 to i64
  %12 = sub i64 %10, %11
  %13 = sdiv exact i64 %12, 16
  ret i64 %13
}

; Function Attrs: mustprogress nounwind ssp uwtable
define noundef zeroext i1 @_ZNK6open3d13visualization16SelectionPolygon7IsEmptyEv(ptr noundef nonnull align 8 dereferenceable(172) %0) unnamed_addr #0 align 2 {
  %2 = alloca ptr, align 8
  store ptr %0, ptr %2, align 8, !tbaa !4
  %3 = load ptr, ptr %2, align 8
  %4 = getelementptr inbounds nuw %"class.open3d::visualization::SelectionPolygon", ptr %3, i32 0, i32 1
  %5 = call noundef i64 @_ZNKSt6vectorIN5Eigen6MatrixIdLi2ELi1ELi0ELi2ELi1EEESaIS2_EE4sizeEv(ptr noundef nonnull align 8 dereferenceable(24) %4) #7
  %6 = icmp ule i64 %5, 1
  ret i1 %6
}